#include <math.h>
#include <stdio.h>
#include <stdlib.h>
#include <string.h>

int main()
{
	int i,j,x,y,z,m,t=1,n;
	char a[300],b[300],c[300];
	scanf("%s%s%s",a,b,c);
    x=strlen(a);
	y=strlen(b); 
	z=strlen(c);
	for(i=0;i<x;i++)
	{
		for(j=0;j<y;j++)
		{
			if(a[i+j]!=b[j])
			{
				break;
			}
			else
			{
				if(j==y-1)
				{
					for(m=0;m<z;m++)
					printf("%c",c[m]);
					i=i+y-1;
					t=0;
				}
			}
		}
		if(j<y-1)
		{
             printf("%c",a[i]);
		}
		if(t==0)
			break;

	}for(n=i+1;n<x;n++)
	printf("%c",a[n]);
	return 0;
}