; ModuleID = '7/76.c'
source_filename = "7/76.c"
target datalayout = "e-m:e-p270:32:32-p271:32:32-p272:64:64-i64:64-f80:128-n8:16:32:64-S128"
target triple = "x86_64-pc-linux-gnu"

@.str = private unnamed_addr constant [7 x i8] c"%s%s%s\00", align 1
@.str.1 = private unnamed_addr constant [3 x i8] c"%c\00", align 1

; Function Attrs: noinline nounwind uwtable
define dso_local i32 @main() #0 {
  %1 = alloca i32, align 4
  %2 = alloca i32, align 4
  %3 = alloca i32, align 4
  %4 = alloca i32, align 4
  %5 = alloca i32, align 4
  %6 = alloca i32, align 4
  %7 = alloca i32, align 4
  %8 = alloca i32, align 4
  %9 = alloca i32, align 4
  %10 = alloca [300 x i8], align 16
  %11 = alloca [300 x i8], align 16
  %12 = alloca [300 x i8], align 16
  store i32 0, i32* %1, align 4
  store i32 1, i32* %8, align 4
  %13 = getelementptr inbounds [300 x i8], [300 x i8]* %10, i64 0, i64 0
  %14 = getelementptr inbounds [300 x i8], [300 x i8]* %11, i64 0, i64 0
  %15 = getelementptr inbounds [300 x i8], [300 x i8]* %12, i64 0, i64 0
  %16 = call i32 (i8*, ...) @__isoc99_scanf(i8* getelementptr inbounds ([7 x i8], [7 x i8]* @.str, i64 0, i64 0), i8* %13, i8* %14, i8* %15)
  %17 = getelementptr inbounds [300 x i8], [300 x i8]* %10, i64 0, i64 0
  %18 = call i64 @strlen(i8* %17) #3
  %19 = trunc i64 %18 to i32
  store i32 %19, i32* %4, align 4
  %20 = getelementptr inbounds [300 x i8], [300 x i8]* %11, i64 0, i64 0
  %21 = call i64 @strlen(i8* %20) #3
  %22 = trunc i64 %21 to i32
  store i32 %22, i32* %5, align 4
  %23 = getelementptr inbounds [300 x i8], [300 x i8]* %12, i64 0, i64 0
  %24 = call i64 @strlen(i8* %23) #3
  %25 = trunc i64 %24 to i32
  store i32 %25, i32* %6, align 4
  store i32 0, i32* %2, align 4
  br label %26

26:                                               ; preds = %97, %0
  %27 = load i32, i32* %2, align 4
  %28 = load i32, i32* %4, align 4
  %29 = icmp slt i32 %27, %28
  br i1 %29, label %30, label %100

30:                                               ; preds = %26
  store i32 0, i32* %3, align 4
  br label %31

31:                                               ; preds = %77, %30
  %32 = load i32, i32* %3, align 4
  %33 = load i32, i32* %5, align 4
  %34 = icmp slt i32 %32, %33
  br i1 %34, label %35, label %80

35:                                               ; preds = %31
  %36 = load i32, i32* %2, align 4
  %37 = load i32, i32* %3, align 4
  %38 = add nsw i32 %36, %37
  %39 = sext i32 %38 to i64
  %40 = getelementptr inbounds [300 x i8], [300 x i8]* %10, i64 0, i64 %39
  %41 = load i8, i8* %40, align 1
  %42 = sext i8 %41 to i32
  %43 = load i32, i32* %3, align 4
  %44 = sext i32 %43 to i64
  %45 = getelementptr inbounds [300 x i8], [300 x i8]* %11, i64 0, i64 %44
  %46 = load i8, i8* %45, align 1
  %47 = sext i8 %46 to i32
  %48 = icmp ne i32 %42, %47
  br i1 %48, label %49, label %50

49:                                               ; preds = %35
  br label %80

50:                                               ; preds = %35
  %51 = load i32, i32* %3, align 4
  %52 = load i32, i32* %5, align 4
  %53 = sub nsw i32 %52, 1
  %54 = icmp eq i32 %51, %53
  br i1 %54, label %55, label %75

55:                                               ; preds = %50
  store i32 0, i32* %7, align 4
  br label %56

56:                                               ; preds = %67, %55
  %57 = load i32, i32* %7, align 4
  %58 = load i32, i32* %6, align 4
  %59 = icmp slt i32 %57, %58
  br i1 %59, label %60, label %70

60:                                               ; preds = %56
  %61 = load i32, i32* %7, align 4
  %62 = sext i32 %61 to i64
  %63 = getelementptr inbounds [300 x i8], [300 x i8]* %12, i64 0, i64 %62
  %64 = load i8, i8* %63, align 1
  %65 = sext i8 %64 to i32
  %66 = call i32 (i8*, ...) @printf(i8* getelementptr inbounds ([3 x i8], [3 x i8]* @.str.1, i64 0, i64 0), i32 %65)
  br label %67

67:                                               ; preds = %60
  %68 = load i32, i32* %7, align 4
  %69 = add nsw i32 %68, 1
  store i32 %69, i32* %7, align 4
  br label %56

70:                                               ; preds = %56
  %71 = load i32, i32* %2, align 4
  %72 = load i32, i32* %5, align 4
  %73 = add nsw i32 %71, %72
  %74 = sub nsw i32 %73, 1
  store i32 %74, i32* %2, align 4
  store i32 0, i32* %8, align 4
  br label %75

75:                                               ; preds = %70, %50
  br label %76

76:                                               ; preds = %75
  br label %77

77:                                               ; preds = %76
  %78 = load i32, i32* %3, align 4
  %79 = add nsw i32 %78, 1
  store i32 %79, i32* %3, align 4
  br label %31

80:                                               ; preds = %49, %31
  %81 = load i32, i32* %3, align 4
  %82 = load i32, i32* %5, align 4
  %83 = sub nsw i32 %82, 1
  %84 = icmp slt i32 %81, %83
  br i1 %84, label %85, label %92

85:                                               ; preds = %80
  %86 = load i32, i32* %2, align 4
  %87 = sext i32 %86 to i64
  %88 = getelementptr inbounds [300 x i8], [300 x i8]* %10, i64 0, i64 %87
  %89 = load i8, i8* %88, align 1
  %90 = sext i8 %89 to i32
  %91 = call i32 (i8*, ...) @printf(i8* getelementptr inbounds ([3 x i8], [3 x i8]* @.str.1, i64 0, i64 0), i32 %90)
  br label %92

92:                                               ; preds = %85, %80
  %93 = load i32, i32* %8, align 4
  %94 = icmp eq i32 %93, 0
  br i1 %94, label %95, label %96

95:                                               ; preds = %92
  br label %100

96:                                               ; preds = %92
  br label %97

97:                                               ; preds = %96
  %98 = load i32, i32* %2, align 4
  %99 = add nsw i32 %98, 1
  store i32 %99, i32* %2, align 4
  br label %26

100:                                              ; preds = %95, %26
  %101 = load i32, i32* %2, align 4
  %102 = add nsw i32 %101, 1
  store i32 %102, i32* %9, align 4
  br label %103

103:                                              ; preds = %114, %100
  %104 = load i32, i32* %9, align 4
  %105 = load i32, i32* %4, align 4
  %106 = icmp slt i32 %104, %105
  br i1 %106, label %107, label %117

107:                                              ; preds = %103
  %108 = load i32, i32* %9, align 4
  %109 = sext i32 %108 to i64
  %110 = getelementptr inbounds [300 x i8], [300 x i8]* %10, i64 0, i64 %109
  %111 = load i8, i8* %110, align 1
  %112 = sext i8 %111 to i32
  %113 = call i32 (i8*, ...) @printf(i8* getelementptr inbounds ([3 x i8], [3 x i8]* @.str.1, i64 0, i64 0), i32 %112)
  br label %114

114:                                              ; preds = %107
  %115 = load i32, i32* %9, align 4
  %116 = add nsw i32 %115, 1
  store i32 %116, i32* %9, align 4
  br label %103

117:                                              ; preds = %103
  ret i32 0
}

declare dso_local i32 @__isoc99_scanf(i8*, ...) #1

; Function Attrs: nounwind readonly
declare dso_local i64 @strlen(i8*) #2

declare dso_local i32 @printf(i8*, ...) #1


!llvm.module.flags = !{!0}
!llvm.ident = !{!1}

!0 = !{i32 1, !"wchar_size", i32 4}
!1 = !{!"clang version 10.0.0-4ubuntu1 "}
